target datalayout = "e-m:e-p270:32:32-p271:32:32-p272:64:64-i64:64-i128:128-f80:128-n8:16:32:64-S128"
target triple = "x86_64-pc-linux-gnu"

%class.V3ErrorCode = type { i8 }
%class.VNType = type { i16 }
%class.AstNode = type { ptr, ptr, ptr, ptr, ptr, ptr, ptr, ptr, %class.VNType, %struct.anon, i8, i32, ptr, ptr, ptr, ptr, %class.VNUser, i32, i32, %class.VNUser, %class.VNUser, i32, i32, %class.VNUser }
%struct.anon = type { i8 }
%class.VNUser = type { %union.anon.3 }
%union.anon.3 = type { ptr }
%class.VSigning = type { i8 }
%class.AstNodeDType = type <{ %class.AstNode, i32, i32, %class.VSigning, i8, [6 x i8] }>

@.str.557 = private unnamed_addr constant [111 x i8] c"generated/home/dtcxzyw/WorkSpace/Projects/compilers/llvm-opt-benchmark/bench/verilator/verilator/src/V3Ast.cpp\00", align 1
@.str.711 = private unnamed_addr constant [37 x i8] c"No dtype when changing to (un)signed\00", align 1

; Function Attrs: mustprogress nounwind uwtable
define linkonce_odr dso_local void @_ZN8VSigningC2ENS_2enE(ptr noundef nonnull align 1 dereferenceable(1) %0, i8 noundef zeroext %1) unnamed_addr #5 comdat align 2 {
  %3 = alloca ptr, align 8
  %4 = alloca i8, align 1
  store ptr %0, ptr %3, align 8
  store i8 %1, ptr %4, align 1
  %5 = load ptr, ptr %3, align 8
  %6 = getelementptr inbounds %class.VSigning, ptr %5, i32 0, i32 0
  %7 = load i8, ptr %4, align 1
  store i8 %7, ptr %6, align 1
  ret void
}

; Function Attrs: mustprogress uwtable
define linkonce_odr dso_local i8 @_ZN8VSigning8fromBoolEb(i1 noundef zeroext %0) #4 comdat align 2 {
  %2 = alloca %class.VSigning, align 1
  %3 = alloca i8, align 1
  %4 = zext i1 %0 to i8
  store i8 %4, ptr %3, align 1
  %5 = load i8, ptr %3, align 1
  %6 = trunc i8 %5 to i1
  br i1 %6, label %7, label %8

7:                                                ; preds = %1
  call void @_ZN8VSigningC2ENS_2enE(ptr noundef nonnull align 1 dereferenceable(1) %2, i8 noundef zeroext 1)
  br label %9

8:                                                ; preds = %1
  call void @_ZN8VSigningC2ENS_2enE(ptr noundef nonnull align 1 dereferenceable(1) %2, i8 noundef zeroext 0)
  br label %9

9:                                                ; preds = %8, %7
  %10 = getelementptr inbounds %class.VSigning, ptr %2, i32 0, i32 0
  %11 = load i8, ptr %10, align 1
  ret i8 %11
}

; Function Attrs: mustprogress nounwind uwtable
define linkonce_odr dso_local noundef i32 @_ZNK12AstNodeDType8widthMinEv(ptr noundef nonnull align 8 dereferenceable(162) %0) #5 comdat align 2 {
  %2 = alloca ptr, align 8
  store ptr %0, ptr %2, align 8
  %3 = load ptr, ptr %2, align 8
  %4 = getelementptr inbounds %class.AstNodeDType, ptr %3, i32 0, i32 2
  %5 = load i32, ptr %4, align 4
  %6 = icmp ne i32 %5, 0
  br i1 %6, label %7, label %10

7:                                                ; preds = %1
  %8 = getelementptr inbounds %class.AstNodeDType, ptr %3, i32 0, i32 2
  %9 = load i32, ptr %8, align 4
  br label %13

10:                                               ; preds = %1
  %11 = getelementptr inbounds %class.AstNodeDType, ptr %3, i32 0, i32 1
  %12 = load i32, ptr %11, align 8
  br label %13

13:                                               ; preds = %10, %7
  %14 = phi i32 [ %9, %7 ], [ %12, %10 ]
  ret i32 %14
}

; Function Attrs: mustprogress nounwind uwtable
define linkonce_odr dso_local noundef i32 @_ZNK12AstNodeDType5widthEv(ptr noundef nonnull align 8 dereferenceable(162) %0) #5 comdat align 2 {
  %2 = alloca ptr, align 8
  store ptr %0, ptr %2, align 8
  %3 = load ptr, ptr %2, align 8
  %4 = getelementptr inbounds %class.AstNodeDType, ptr %3, i32 0, i32 1
  %5 = load i32, ptr %4, align 8
  ret i32 %5
}

; Function Attrs: mustprogress nounwind uwtable
define linkonce_odr dso_local void @_ZN11V3ErrorCodeC2ENS_2enE(ptr noundef nonnull align 1 dereferenceable(1) %0, i8 noundef zeroext %1) unnamed_addr #5 comdat align 2 {
  %3 = alloca ptr, align 8
  %4 = alloca i8, align 1
  store ptr %0, ptr %3, align 8
  store i8 %1, ptr %4, align 1
  %5 = load ptr, ptr %3, align 8
  %6 = getelementptr inbounds %class.V3ErrorCode, ptr %5, i32 0, i32 0
  %7 = load i8, ptr %4, align 1
  store i8 %7, ptr %6, align 1
  ret void
}

; Function Attrs: mustprogress nounwind uwtable
define linkonce_odr dso_local noundef ptr @_ZNK7AstNode6dtypepEv(ptr noundef nonnull align 8 dereferenceable(152) %0) #5 comdat align 2 {
  %2 = alloca ptr, align 8
  store ptr %0, ptr %2, align 8
  %3 = load ptr, ptr %2, align 8
  %4 = getelementptr inbounds %class.AstNode, ptr %3, i32 0, i32 12
  %5 = load ptr, ptr %4, align 8
  ret ptr %5
}

; Function Attrs: mustprogress uwtable
define dso_local void @_ZN7AstNode14dtypeChgSignedEb(ptr noundef nonnull align 8 dereferenceable(152) %0, i1 noundef zeroext %1) #4 align 2 {
  %3 = alloca ptr, align 8
  %4 = alloca i8, align 1
  %5 = alloca %class.V3ErrorCode, align 1
  %6 = alloca %class.VSigning, align 1
  store ptr %0, ptr %3, align 8
  %7 = zext i1 %1 to i8
  store i8 %7, ptr %4, align 1
  %8 = load ptr, ptr %3, align 8
  br label %9

9:                                                ; preds = %2
  %10 = call noundef ptr @_ZNK7AstNode6dtypepEv(ptr noundef nonnull align 8 dereferenceable(152) %8)
  %11 = icmp ne ptr %10, null
  %12 = xor i1 %11, true
  %13 = xor i1 %12, true
  %14 = xor i1 %13, true
  br i1 %14, label %15, label %21

15:                                               ; preds = %9
  call void @_ZN11V3ErrorCodeC2ENS_2enE(ptr noundef nonnull align 1 dereferenceable(1) %5, i8 noundef zeroext 4)
  %16 = getelementptr inbounds %class.V3ErrorCode, ptr %5, i32 0, i32 0
  %17 = load i8, ptr %16, align 1
  %18 = call noundef nonnull align 8 dereferenceable(112) ptr @_ZN7V3Error19v3errorPrepFileLineB5cxx11E11V3ErrorCodePKcib(i8 %17, ptr noundef @.str.557, i32 noundef 1455, i1 noundef zeroext false)
  %19 = call noundef nonnull align 8 dereferenceable(112) ptr @_ZN7V3Error10v3errorStrB5cxx11Ev()
  %20 = call noundef nonnull align 8 dereferenceable(8) ptr @_ZStlsISt11char_traitsIcEERSt13basic_ostreamIcT_ES5_PKc(ptr noundef nonnull align 8 dereferenceable(8) %19, ptr noundef @.str.711)
  call void @_ZNK7AstNode15v3errorEndFatalERNSt7__cxx1119basic_ostringstreamIcSt11char_traitsIcESaIcEEE(ptr noundef nonnull align 8 dereferenceable(152) %8, ptr noundef nonnull align 8 dereferenceable(112) %20) #17
  unreachable

21:                                               ; preds = %9
  br label %22

22:                                               ; preds = %21
  %23 = call noundef ptr @_ZNK7AstNode6dtypepEv(ptr noundef nonnull align 8 dereferenceable(152) %8)
  %24 = call noundef i32 @_ZNK12AstNodeDType5widthEv(ptr noundef nonnull align 8 dereferenceable(162) %23)
  %25 = call noundef ptr @_ZNK7AstNode6dtypepEv(ptr noundef nonnull align 8 dereferenceable(152) %8)
  %26 = call noundef i32 @_ZNK12AstNodeDType8widthMinEv(ptr noundef nonnull align 8 dereferenceable(162) %25)
  %27 = load i8, ptr %4, align 1
  %28 = trunc i8 %27 to i1
  %29 = call i8 @_ZN8VSigning8fromBoolEb(i1 noundef zeroext %28)
  %30 = getelementptr inbounds %class.VSigning, ptr %6, i32 0, i32 0
  store i8 %29, ptr %30, align 1
  %31 = getelementptr inbounds %class.VSigning, ptr %6, i32 0, i32 0
  %32 = load i8, ptr %31, align 1
  call void @_ZN7AstNode19dtypeChgWidthSignedEii8VSigning(ptr noundef nonnull align 8 dereferenceable(152) %8, i32 noundef %24, i32 noundef %26, i8 %32)
  ret void
}