; Function Attrs: mustprogress uwtable
define dso_local void @_ZN7AstNode14dtypeChgSignedEb(ptr noundef nonnull align 8 dereferenceable(152) %0, i1 noundef zeroext %1) local_unnamed_addr #4 align 2 {
  %3 = getelementptr inbounds i8, ptr %0, i64 72
  %4 = load ptr, ptr %3, align 8
  %.not = icmp eq ptr %4, null
  br i1 %.not, label %5, label %9

5:                                                ; preds = %2
  %6 = tail call noundef nonnull align 8 dereferenceable(112) ptr @_ZN7V3Error19v3errorPrepFileLineB5cxx11E11V3ErrorCodePKcib(i8 4, ptr noundef nonnull @.str.557, i32 noundef 1455, i1 noundef zeroext false)
  %7 = tail call noundef nonnull align 8 dereferenceable(112) ptr @_ZN7V3Error10v3errorStrB5cxx11Ev()
  %8 = tail call noundef nonnull align 8 dereferenceable(8) ptr @_ZStlsISt11char_traitsIcEERSt13basic_ostreamIcT_ES5_PKc(ptr noundef nonnull align 8 dereferenceable(8) %7, ptr noundef nonnull @.str.711)
  tail call void @_ZNK7AstNode15v3errorEndFatalERNSt7__cxx1119basic_ostringstreamIcSt11char_traitsIcESaIcEEE(ptr noundef nonnull align 8 dereferenceable(152) %0, ptr noundef nonnull align 8 dereferenceable(112) %8) #25
  unreachable

9:                                                ; preds = %2
  %10 = getelementptr inbounds i8, ptr %4, i64 152
  %11 = load i32, ptr %10, align 8
  %12 = getelementptr inbounds i8, ptr %4, i64 156
  %13 = load i32, ptr %12, align 4
  %.not.i = icmp eq i32 %13, 0
  %14 = select i1 %.not.i, i32 %11, i32 %13
  %spec.select.i = zext i1 %1 to i8
  tail call void @_ZN7AstNode19dtypeChgWidthSignedEii8VSigning(ptr noundef nonnull align 8 dereferenceable(152) %0, i32 noundef %11, i32 noundef %14, i8 %spec.select.i)
  ret void
}